target datalayout = "e-m:e-p270:32:32-p271:32:32-p272:64:64-i64:64-i128:128-f80:128-n8:16:32:64-S128"
target triple = "x86_64-pc-linux-gnu"

%struct.__va_list_tag = type { i32, i32, ptr, ptr }

@rb_cStruct = dso_local global i64 0, align 8
@rb_struct_define_under.rbimpl_id = internal global i64 0, align 8

; Function Attrs: inlinehint nounwind sspstrong willreturn memory(read) uwtable
define internal i64 @rb_intern_const(ptr noundef nonnull %0) #6 {
  %2 = alloca ptr, align 8
  %3 = alloca i64, align 8
  store ptr %0, ptr %2, align 8, !tbaa !16
  call void @llvm.lifetime.start.p0(i64 8, ptr %3) #26
  %4 = load ptr, ptr %2, align 8, !tbaa !16
  %5 = call i64 @strlen(ptr noundef %4) #28
  store i64 %5, ptr %3, align 8, !tbaa !7
  %6 = load ptr, ptr %2, align 8, !tbaa !16
  %7 = load i64, ptr %3, align 8, !tbaa !7
  %8 = call i64 @rb_intern2(ptr noundef %6, i64 noundef %7)
  call void @llvm.lifetime.end.p0(i64 8, ptr %3) #26
  ret i64 %8
}

; Function Attrs: inlinehint nounwind sspstrong memory(argmem: readwrite, inaccessiblemem: readwrite) uwtable
define internal i64 @rbimpl_intern_const(ptr noundef nonnull %0, ptr noundef nonnull %1) #10 {
  %3 = alloca ptr, align 8
  %4 = alloca ptr, align 8
  store ptr %0, ptr %3, align 8, !tbaa !28
  store ptr %1, ptr %4, align 8, !tbaa !16
  br label %5

5:                                                ; preds = %10, %2
  %6 = load ptr, ptr %3, align 8, !tbaa !28
  %7 = load i64, ptr %6, align 8, !tbaa !7
  %8 = icmp ne i64 %7, 0
  %9 = xor i1 %8, true
  br i1 %9, label %10, label %14

10:                                               ; preds = %5
  %11 = load ptr, ptr %4, align 8, !tbaa !16
  %12 = call i64 @rb_intern_const(ptr noundef %11) #28
  %13 = load ptr, ptr %3, align 8, !tbaa !28
  store i64 %12, ptr %13, align 8, !tbaa !7
  br label %5, !llvm.loop !30

14:                                               ; preds = %5
  %15 = load ptr, ptr %3, align 8, !tbaa !28
  %16 = load i64, ptr %15, align 8, !tbaa !7
  ret i64 %16
}

; Function Attrs: nounwind sspstrong uwtable
define dso_local i64 @rb_struct_define_under(i64 noundef %0, ptr noundef nonnull %1, ...) #0 {
  %3 = alloca i64, align 8
  %4 = alloca ptr, align 8
  %5 = alloca [1 x %struct.__va_list_tag], align 16
  %6 = alloca i64, align 8
  %7 = alloca i64, align 8
  store i64 %0, ptr %3, align 8, !tbaa !7
  store ptr %1, ptr %4, align 8, !tbaa !16
  call void @llvm.lifetime.start.p0(i64 24, ptr %5) #26
  call void @llvm.lifetime.start.p0(i64 8, ptr %6) #26
  %8 = getelementptr inbounds [1 x %struct.__va_list_tag], ptr %5, i64 0, i64 0
  call void @llvm.va_start.p0(ptr %8)
  %9 = getelementptr inbounds [1 x %struct.__va_list_tag], ptr %5, i64 0, i64 0
  %10 = call i64 @struct_make_members_list(ptr noundef %9)
  store i64 %10, ptr %6, align 8, !tbaa !7
  %11 = getelementptr inbounds [1 x %struct.__va_list_tag], ptr %5, i64 0, i64 0
  call void @llvm.va_end.p0(ptr %11)
  %12 = load i64, ptr %3, align 8, !tbaa !7
  br i1 false, label %13, label %17

13:                                               ; preds = %2
  %14 = load ptr, ptr %4, align 8, !tbaa !16
  %15 = call i64 @rbimpl_intern_const(ptr noundef @rb_struct_define_under.rbimpl_id, ptr noundef %14) #30
  store i64 %15, ptr %7, align 8, !tbaa !7
  %16 = load i64, ptr %7, align 8, !tbaa !7
  br label %20

17:                                               ; preds = %2
  %18 = load ptr, ptr %4, align 8, !tbaa !16
  %19 = call i64 @rb_intern(ptr noundef %18)
  br label %20

20:                                               ; preds = %17, %13
  %21 = phi i64 [ %16, %13 ], [ %19, %17 ]
  %22 = load i64, ptr @rb_cStruct, align 8, !tbaa !7
  %23 = call i64 @rb_define_class_id_under(i64 noundef %12, i64 noundef %21, i64 noundef %22)
  %24 = load i64, ptr %6, align 8, !tbaa !7
  %25 = call i64 @setup_struct(i64 noundef %23, i64 noundef %24)
  call void @llvm.lifetime.end.p0(i64 8, ptr %6) #26
  call void @llvm.lifetime.end.p0(i64 24, ptr %5) #26
  ret i64 %25
}