; Function Attrs: nounwind sspstrong uwtable
define dso_local noundef i64 @rb_struct_define_under(i64 noundef %0, ptr noundef nonnull %1, ...) local_unnamed_addr #0 {
  %3 = alloca [1 x %struct.__va_list_tag], align 16
  call void @llvm.lifetime.start.p0(i64 24, ptr nonnull %3) #19
  call void @llvm.va_start.p0(ptr nonnull %3)
  %4 = call fastcc i64 @struct_make_members_list(ptr noundef %3)
  call void @llvm.va_end.p0(ptr nonnull %3)
  %5 = call i64 @rb_intern(ptr noundef nonnull %1) #19
  %6 = load i64, ptr @rb_cStruct, align 8, !tbaa !7
  %7 = call i64 @rb_define_class_id_under(i64 noundef %0, i64 noundef %5, i64 noundef %6) #19
  %8 = call fastcc i64 @setup_struct(i64 noundef %7, i64 noundef %4)
  call void @llvm.lifetime.end.p0(i64 24, ptr nonnull %3) #19
  ret i64 %7
}